	.text
	.file	"2rpyn1zyembyh7dx"
	.section	".text._ZN4core3ops8function6FnOnce40call_once$u7b$$u7b$vtable.shim$u7d$$u7d$17hcd711893c6f7ae37E","ax",@progbits
	.hidden	_ZN4core3ops8function6FnOnce40call_once$u7b$$u7b$vtable.shim$u7d$$u7d$17hcd711893c6f7ae37E
	.globl	_ZN4core3ops8function6FnOnce40call_once$u7b$$u7b$vtable.shim$u7d$$u7d$17hcd711893c6f7ae37E
	.p2align	4, 0x90
	.type	_ZN4core3ops8function6FnOnce40call_once$u7b$$u7b$vtable.shim$u7d$$u7d$17hcd711893c6f7ae37E,@function
_ZN4core3ops8function6FnOnce40call_once$u7b$$u7b$vtable.shim$u7d$$u7d$17hcd711893c6f7ae37E:
.Lfunc_begin0:
	.file	1 "/rustc/b8cedc00407a4c56a3bda1ed605c6fc166655447/src/libcore/ops/function.rs"
	.loc	1 232 0
	.cfi_startproc
	subq	$24, %rsp
	.cfi_def_cfa_offset 32
	movq	%rdi, 8(%rsp)
.Ltmp0:
	.loc	1 232 4 prologue_end
	movq	8(%rsp), %rax
	movq	(%rax), %rdi
	callq	_ZN4core3ops8function6FnOnce9call_once17hb7f0785bced9f793E
	movl	%eax, 4(%rsp)
	.loc	1 0 4 is_stmt 0
	movl	4(%rsp), %eax
	.loc	1 232 4
	addq	$24, %rsp
	.cfi_def_cfa_offset 8
	retq
.Ltmp1:
.Lfunc_end0:
	.size	_ZN4core3ops8function6FnOnce40call_once$u7b$$u7b$vtable.shim$u7d$$u7d$17hcd711893c6f7ae37E, .Lfunc_end0-_ZN4core3ops8function6FnOnce40call_once$u7b$$u7b$vtable.shim$u7d$$u7d$17hcd711893c6f7ae37E
	.cfi_endproc

	.section	.text._ZN4core3ops8function6FnOnce9call_once17hb7f0785bced9f793E,"ax",@progbits
	.p2align	4, 0x90
	.type	_ZN4core3ops8function6FnOnce9call_once17hb7f0785bced9f793E,@function
_ZN4core3ops8function6FnOnce9call_once17hb7f0785bced9f793E:
.Lfunc_begin1:
	.loc	1 232 0 is_stmt 1
	.cfi_startproc
	.cfi_personality 155, DW.ref.rust_eh_personality
	.cfi_lsda 27, .Lexception0
	subq	$40, %rsp
	.cfi_def_cfa_offset 48
	movq	%rdi, 8(%rsp)
.Ltmp2:
	leaq	8(%rsp), %rdi
.Ltmp5:
	.loc	1 232 4 prologue_end
	callq	_ZN3std2rt10lang_start28_$u7b$$u7b$closure$u7d$$u7d$17h6fa77a636e9baf3fE
.Ltmp3:
	movl	%eax, 4(%rsp)
	jmp	.LBB1_1
.LBB1_1:
	jmp	.LBB1_2
.LBB1_2:
	.loc	1 0 4 is_stmt 0
	movl	4(%rsp), %eax
	.loc	1 232 4
	addq	$40, %rsp
	.cfi_def_cfa_offset 8
	retq
.LBB1_3:
	.cfi_def_cfa_offset 48
	jmp	.LBB1_4
.LBB1_4:
	movq	24(%rsp), %rdi
	callq	_Unwind_Resume@PLT
	ud2
.Ltmp6:
.LBB1_5:
.Ltmp4:
	.loc	1 0 4
	movq	%rax, 24(%rsp)
	movl	%edx, 32(%rsp)
	jmp	.LBB1_3
.Lfunc_end1:
	.size	_ZN4core3ops8function6FnOnce9call_once17hb7f0785bced9f793E, .Lfunc_end1-_ZN4core3ops8function6FnOnce9call_once17hb7f0785bced9f793E
	.cfi_endproc
	.section	.gcc_except_table,"a",@progbits
	.p2align	2
GCC_except_table1:
.Lexception0:
	.byte	255
	.byte	255
	.byte	1
	.uleb128 .Lcst_end0-.Lcst_begin0
.Lcst_begin0:
	.uleb128 .Ltmp2-.Lfunc_begin1
	.uleb128 .Ltmp3-.Ltmp2
	.uleb128 .Ltmp4-.Lfunc_begin1
	.byte	0
	.uleb128 .Ltmp3-.Lfunc_begin1
	.uleb128 .Lfunc_end1-.Ltmp3
	.byte	0
	.byte	0
.Lcst_end0:
	.p2align	2

	.section	.text._ZN4core3ptr13drop_in_place17h2d2b31ebc437634aE,"ax",@progbits
	.hidden	_ZN4core3ptr13drop_in_place17h2d2b31ebc437634aE
	.globl	_ZN4core3ptr13drop_in_place17h2d2b31ebc437634aE
	.p2align	4, 0x90
	.type	_ZN4core3ptr13drop_in_place17h2d2b31ebc437634aE,@function
_ZN4core3ptr13drop_in_place17h2d2b31ebc437634aE:
.Lfunc_begin2:
	.file	2 "/rustc/b8cedc00407a4c56a3bda1ed605c6fc166655447/src/libcore/ptr/mod.rs"
	.loc	2 174 0 is_stmt 1
	.cfi_startproc
	pushq	%rax
	.cfi_def_cfa_offset 16
	movq	%rdi, (%rsp)
.Ltmp7:
	.loc	2 174 0 prologue_end
	popq	%rax
	.cfi_def_cfa_offset 8
	retq
.Ltmp8:
.Lfunc_end2:
	.size	_ZN4core3ptr13drop_in_place17h2d2b31ebc437634aE, .Lfunc_end2-_ZN4core3ptr13drop_in_place17h2d2b31ebc437634aE
	.cfi_endproc

	.type	__rustc_debug_gdb_scripts_section__,@object
	.section	.debug_gdb_scripts,"aMS",@progbits,1
	.weak	__rustc_debug_gdb_scripts_section__
__rustc_debug_gdb_scripts_section__:
	.asciz	"\001gdb_load_rust_pretty_printers.py"
	.size	__rustc_debug_gdb_scripts_section__, 34

	.hidden	_ZN3std2rt10lang_start28_$u7b$$u7b$closure$u7d$$u7d$17h6fa77a636e9baf3fE
	.section	".text._ZN4core3ops8function6FnOnce40call_once$u7b$$u7b$vtable.shim$u7d$$u7d$17hcd711893c6f7ae37E","ax",@progbits
.Lsec_end0:
	.section	.text._ZN4core3ops8function6FnOnce9call_once17hb7f0785bced9f793E,"ax",@progbits
.Lsec_end1:
	.section	.text._ZN4core3ptr13drop_in_place17h2d2b31ebc437634aE,"ax",@progbits
.Lsec_end2:
	.section	.data.DW.ref.rust_eh_personality,"aGw",@progbits,DW.ref.rust_eh_personality,comdat
	.p2align	3
	.type	DW.ref.rust_eh_personality,@object
	.size	DW.ref.rust_eh_personality, 8
DW.ref.rust_eh_personality:
	.quad	rust_eh_personality

	.section	".note.GNU-stack","",@progbits